; ModuleID = '22/1064.c'
source_filename = "22/1064.c"
target datalayout = "e-m:e-p270:32:32-p271:32:32-p272:64:64-i64:64-f80:128-n8:16:32:64-S128"
target triple = "x86_64-pc-linux-gnu"

@.str = private unnamed_addr constant [5 x i8] c"%d%c\00", align 1
@.str.1 = private unnamed_addr constant [3 x i8] c"No\00", align 1
@.str.2 = private unnamed_addr constant [3 x i8] c"%d\00", align 1

; Function Attrs: noinline nounwind uwtable
define dso_local void @main() #0 {
  %1 = alloca [305 x i32], align 16
  %2 = alloca i32, align 4
  %3 = alloca i32, align 4
  %4 = alloca i32, align 4
  %5 = alloca i32, align 4
  %6 = alloca i8, align 1
  store i32 1, i32* %2, align 4
  br label %7

7:                                                ; preds = %19, %0
  %8 = load i32, i32* %2, align 4
  %9 = sext i32 %8 to i64
  %10 = getelementptr inbounds [305 x i32], [305 x i32]* %1, i64 0, i64 %9
  %11 = call i32 (i8*, ...) @__isoc99_scanf(i8* getelementptr inbounds ([5 x i8], [5 x i8]* @.str, i64 0, i64 0), i32* %10, i8* %6)
  %12 = icmp ne i32 %11, 0
  br i1 %12, label %13, label %17

13:                                               ; preds = %7
  %14 = load i8, i8* %6, align 1
  %15 = sext i8 %14 to i32
  %16 = icmp ne i32 %15, 10
  br label %17

17:                                               ; preds = %13, %7
  %18 = phi i1 [ false, %7 ], [ %16, %13 ]
  br i1 %18, label %19, label %22

19:                                               ; preds = %17
  %20 = load i32, i32* %2, align 4
  %21 = add nsw i32 %20, 1
  store i32 %21, i32* %2, align 4
  br label %7

22:                                               ; preds = %17
  %23 = load i32, i32* %2, align 4
  %24 = icmp eq i32 %23, 1
  br i1 %24, label %25, label %27

25:                                               ; preds = %22
  %26 = call i32 (i8*, ...) @printf(i8* getelementptr inbounds ([3 x i8], [3 x i8]* @.str.1, i64 0, i64 0))
  br label %80

27:                                               ; preds = %22
  %28 = getelementptr inbounds [305 x i32], [305 x i32]* %1, i64 0, i64 1
  %29 = load i32, i32* %28, align 4
  store i32 %29, i32* %3, align 4
  store i32 0, i32* %4, align 4
  store i32 2, i32* %5, align 4
  br label %30

30:                                               ; preds = %68, %27
  %31 = load i32, i32* %5, align 4
  %32 = load i32, i32* %2, align 4
  %33 = icmp sle i32 %31, %32
  br i1 %33, label %34, label %71

34:                                               ; preds = %30
  %35 = load i32, i32* %5, align 4
  %36 = sext i32 %35 to i64
  %37 = getelementptr inbounds [305 x i32], [305 x i32]* %1, i64 0, i64 %36
  %38 = load i32, i32* %37, align 4
  %39 = load i32, i32* %3, align 4
  %40 = icmp sgt i32 %38, %39
  br i1 %40, label %41, label %47

41:                                               ; preds = %34
  %42 = load i32, i32* %3, align 4
  store i32 %42, i32* %4, align 4
  %43 = load i32, i32* %5, align 4
  %44 = sext i32 %43 to i64
  %45 = getelementptr inbounds [305 x i32], [305 x i32]* %1, i64 0, i64 %44
  %46 = load i32, i32* %45, align 4
  store i32 %46, i32* %3, align 4
  br label %67

47:                                               ; preds = %34
  %48 = load i32, i32* %5, align 4
  %49 = sext i32 %48 to i64
  %50 = getelementptr inbounds [305 x i32], [305 x i32]* %1, i64 0, i64 %49
  %51 = load i32, i32* %50, align 4
  %52 = load i32, i32* %4, align 4
  %53 = icmp sgt i32 %51, %52
  br i1 %53, label %54, label %66

54:                                               ; preds = %47
  %55 = load i32, i32* %5, align 4
  %56 = sext i32 %55 to i64
  %57 = getelementptr inbounds [305 x i32], [305 x i32]* %1, i64 0, i64 %56
  %58 = load i32, i32* %57, align 4
  %59 = load i32, i32* %3, align 4
  %60 = icmp ne i32 %58, %59
  br i1 %60, label %61, label %66

61:                                               ; preds = %54
  %62 = load i32, i32* %5, align 4
  %63 = sext i32 %62 to i64
  %64 = getelementptr inbounds [305 x i32], [305 x i32]* %1, i64 0, i64 %63
  %65 = load i32, i32* %64, align 4
  store i32 %65, i32* %4, align 4
  br label %66

66:                                               ; preds = %61, %54, %47
  br label %67

67:                                               ; preds = %66, %41
  br label %68

68:                                               ; preds = %67
  %69 = load i32, i32* %5, align 4
  %70 = add nsw i32 %69, 1
  store i32 %70, i32* %5, align 4
  br label %30

71:                                               ; preds = %30
  %72 = load i32, i32* %4, align 4
  %73 = icmp eq i32 %72, 0
  br i1 %73, label %74, label %76

74:                                               ; preds = %71
  %75 = call i32 (i8*, ...) @printf(i8* getelementptr inbounds ([3 x i8], [3 x i8]* @.str.1, i64 0, i64 0))
  br label %79

76:                                               ; preds = %71
  %77 = load i32, i32* %4, align 4
  %78 = call i32 (i8*, ...) @printf(i8* getelementptr inbounds ([3 x i8], [3 x i8]* @.str.2, i64 0, i64 0), i32 %77)
  br label %79

79:                                               ; preds = %76, %74
  br label %80

80:                                               ; preds = %79, %25
  ret void
}

declare dso_local i32 @__isoc99_scanf(i8*, ...) #1

declare dso_local i32 @printf(i8*, ...) #1


!llvm.module.flags = !{!0}
!llvm.ident = !{!1}

!0 = !{i32 1, !"wchar_size", i32 4}
!1 = !{!"clang version 10.0.0-4ubuntu1 "}
